target datalayout = "e-m:e-p270:32:32-p271:32:32-p272:64:64-i64:64-i128:128-f80:128-n8:16:32:64-S128"
target triple = "x86_64-pc-linux-gnu"

; Function Attrs: nounwind uwtable
define internal void @compute_histogram8(ptr noundef %0, i64 noundef %1, i32 noundef %2, i32 noundef %3, ptr noundef %4, i64 noundef %5) #1 {
  %7 = alloca ptr, align 8
  %8 = alloca i64, align 8
  %9 = alloca i32, align 4
  %10 = alloca i32, align 4
  %11 = alloca ptr, align 8
  %12 = alloca i64, align 8
  %13 = alloca i32, align 4
  %14 = alloca i32, align 4
  %15 = alloca i32, align 4
  %16 = alloca i32, align 4
  %17 = alloca i32, align 4
  store ptr %0, ptr %7, align 8, !tbaa !51
  store i64 %1, ptr %8, align 8, !tbaa !90
  store i32 %2, ptr %9, align 4, !tbaa !28
  store i32 %3, ptr %10, align 4, !tbaa !28
  store ptr %4, ptr %11, align 8, !tbaa !52
  store i64 %5, ptr %12, align 8, !tbaa !90
  %18 = load ptr, ptr %11, align 8, !tbaa !52
  %19 = load i64, ptr %12, align 8, !tbaa !90
  %20 = mul i64 %19, 4
  call void @llvm.memset.p0.i64(ptr align 4 %18, i8 0, i64 %20, i1 false)
  call void @llvm.lifetime.start.p0(i64 4, ptr %13) #8
  store i32 0, ptr %13, align 4, !tbaa !28
  br label %21

21:                                               ; preds = %50, %6
  %22 = load i32, ptr %13, align 4, !tbaa !28
  %23 = load i32, ptr %10, align 4, !tbaa !28
  %24 = icmp slt i32 %22, %23
  br i1 %24, label %26, label %25

25:                                               ; preds = %21
  store i32 2, ptr %14, align 4
  call void @llvm.lifetime.end.p0(i64 4, ptr %13) #8
  br label %53

26:                                               ; preds = %21
  call void @llvm.lifetime.start.p0(i64 4, ptr %15) #8
  store i32 0, ptr %15, align 4, !tbaa !28
  br label %27

27:                                               ; preds = %43, %26
  %28 = load i32, ptr %15, align 4, !tbaa !28
  %29 = load i32, ptr %9, align 4, !tbaa !28
  %30 = icmp slt i32 %28, %29
  br i1 %30, label %32, label %31

31:                                               ; preds = %27
  store i32 5, ptr %14, align 4
  call void @llvm.lifetime.end.p0(i64 4, ptr %15) #8
  br label %46

32:                                               ; preds = %27
  %33 = load ptr, ptr %11, align 8, !tbaa !52
  %34 = load ptr, ptr %7, align 8, !tbaa !51
  %35 = load i32, ptr %15, align 4, !tbaa !28
  %36 = sext i32 %35 to i64
  %37 = getelementptr inbounds i8, ptr %34, i64 %36
  %38 = load i8, ptr %37, align 1, !tbaa !91
  %39 = zext i8 %38 to i64
  %40 = getelementptr inbounds nuw float, ptr %33, i64 %39
  %41 = load float, ptr %40, align 4, !tbaa !73
  %42 = fadd nsz float %41, 1.000000e+00
  store float %42, ptr %40, align 4, !tbaa !73
  br label %43

43:                                               ; preds = %32
  %44 = load i32, ptr %15, align 4, !tbaa !28
  %45 = add nsw i32 %44, 1
  store i32 %45, ptr %15, align 4, !tbaa !28
  br label %27, !llvm.loop !92

46:                                               ; preds = %31
  %47 = load i64, ptr %8, align 8, !tbaa !90
  %48 = load ptr, ptr %7, align 8, !tbaa !51
  %49 = getelementptr inbounds i8, ptr %48, i64 %47
  store ptr %49, ptr %7, align 8, !tbaa !51
  br label %50

50:                                               ; preds = %46
  %51 = load i32, ptr %13, align 4, !tbaa !28
  %52 = add nsw i32 %51, 1
  store i32 %52, ptr %13, align 4, !tbaa !28
  br label %21, !llvm.loop !93

53:                                               ; preds = %25
  call void @llvm.lifetime.start.p0(i64 4, ptr %16) #8
  store i32 0, ptr %16, align 4, !tbaa !28
  br label %54

54:                                               ; preds = %69, %53
  %55 = load i32, ptr %16, align 4, !tbaa !28
  %56 = sext i32 %55 to i64
  %57 = load i64, ptr %12, align 8, !tbaa !90
  %58 = icmp ult i64 %56, %57
  br i1 %58, label %60, label %59

59:                                               ; preds = %54
  store i32 8, ptr %14, align 4
  call void @llvm.lifetime.end.p0(i64 4, ptr %16) #8
  br label %72

60:                                               ; preds = %54
  %61 = load i64, ptr %12, align 8, !tbaa !90
  %62 = uitofp i64 %61 to float
  %63 = load ptr, ptr %11, align 8, !tbaa !52
  %64 = load i32, ptr %16, align 4, !tbaa !28
  %65 = sext i32 %64 to i64
  %66 = getelementptr inbounds float, ptr %63, i64 %65
  %67 = load float, ptr %66, align 4, !tbaa !73
  %68 = fdiv nsz float %67, %62
  store float %68, ptr %66, align 4, !tbaa !73
  br label %69

69:                                               ; preds = %60
  %70 = load i32, ptr %16, align 4, !tbaa !28
  %71 = add nsw i32 %70, 1
  store i32 %71, ptr %16, align 4, !tbaa !28
  br label %54, !llvm.loop !94

72:                                               ; preds = %59
  call void @llvm.lifetime.start.p0(i64 4, ptr %17) #8
  store i32 1, ptr %17, align 4, !tbaa !28
  br label %73

73:                                               ; preds = %92, %72
  %74 = load i32, ptr %17, align 4, !tbaa !28
  %75 = sext i32 %74 to i64
  %76 = load i64, ptr %12, align 8, !tbaa !90
  %77 = icmp ult i64 %75, %76
  br i1 %77, label %79, label %78

78:                                               ; preds = %73
  store i32 11, ptr %14, align 4
  call void @llvm.lifetime.end.p0(i64 4, ptr %17) #8
  br label %95

79:                                               ; preds = %73
  %80 = load ptr, ptr %11, align 8, !tbaa !52
  %81 = load i32, ptr %17, align 4, !tbaa !28
  %82 = sub nsw i32 %81, 1
  %83 = sext i32 %82 to i64
  %84 = getelementptr inbounds float, ptr %80, i64 %83
  %85 = load float, ptr %84, align 4, !tbaa !73
  %86 = load ptr, ptr %11, align 8, !tbaa !52
  %87 = load i32, ptr %17, align 4, !tbaa !28
  %88 = sext i32 %87 to i64
  %89 = getelementptr inbounds float, ptr %86, i64 %88
  %90 = load float, ptr %89, align 4, !tbaa !73
  %91 = fadd nsz float %90, %85
  store float %91, ptr %89, align 4, !tbaa !73
  br label %92

92:                                               ; preds = %79
  %93 = load i32, ptr %17, align 4, !tbaa !28
  %94 = add nsw i32 %93, 1
  store i32 %94, ptr %17, align 4, !tbaa !28
  br label %73, !llvm.loop !95

95:                                               ; preds = %78
  ret void
}