; Function Attrs: nofree norecurse nosync nounwind memory(argmem: readwrite) uwtable
define internal void @compute_histogram8(ptr noundef readonly captures(none) %0, i64 noundef %1, i32 noundef %2, i32 noundef %3, ptr noundef captures(none) %4, i64 noundef %5) #7 {
  %7 = shl i64 %5, 2
  tail call void @llvm.memset.p0.i64(ptr align 4 %4, i8 0, i64 %7, i1 false)
  %8 = icmp sgt i32 %3, 0
  %9 = icmp sgt i32 %2, 0
  %or.cond = and i1 %8, %9
  br i1 %or.cond, label %.preheader33.us.preheader, label %.preheader32

.preheader33.us.preheader:                        ; preds = %6
  %wide.trip.count = zext nneg i32 %2 to i64
  br label %.preheader33.us

.preheader33.us:                                  ; preds = %.preheader33.us.preheader, %._crit_edge.us
  %.02736.us = phi i32 [ %18, %._crit_edge.us ], [ 0, %.preheader33.us.preheader ]
  %.02835.us = phi ptr [ %17, %._crit_edge.us ], [ %0, %.preheader33.us.preheader ]
  br label %10

10:                                               ; preds = %.preheader33.us, %10
  %indvars.iv = phi i64 [ 0, %.preheader33.us ], [ %indvars.iv.next, %10 ]
  %11 = getelementptr inbounds nuw i8, ptr %.02835.us, i64 %indvars.iv
  %12 = load i8, ptr %11, align 1, !tbaa !83
  %13 = zext i8 %12 to i64
  %14 = getelementptr inbounds nuw float, ptr %4, i64 %13
  %15 = load float, ptr %14, align 4, !tbaa !64
  %16 = fadd nsz float %15, 1.000000e+00
  store float %16, ptr %14, align 4, !tbaa !64
  %indvars.iv.next = add nuw nsw i64 %indvars.iv, 1
  %exitcond.not = icmp eq i64 %indvars.iv.next, %wide.trip.count
  br i1 %exitcond.not, label %._crit_edge.us, label %10, !llvm.loop !84

._crit_edge.us:                                   ; preds = %10
  %17 = getelementptr inbounds i8, ptr %.02835.us, i64 %1
  %18 = add nuw nsw i32 %.02736.us, 1
  %exitcond42.not = icmp eq i32 %18, %3
  br i1 %exitcond42.not, label %.preheader32, label %.preheader33.us, !llvm.loop !85

.preheader32:                                     ; preds = %._crit_edge.us, %6
  %.not = icmp eq i64 %5, 0
  br i1 %.not, label %._crit_edge, label %.lr.ph

.lr.ph:                                           ; preds = %.preheader32
  %19 = uitofp i64 %5 to float
  br label %20

.preheader:                                       ; preds = %20
  %.not51 = icmp eq i64 %5, 1
  br i1 %.not51, label %._crit_edge, label %.lr.ph39.preheader

.lr.ph39.preheader:                               ; preds = %.preheader
  %load_initial = load float, ptr %4, align 4
  br label %.lr.ph39

20:                                               ; preds = %.lr.ph, %20
  %indvars.iv43 = phi i64 [ 0, %.lr.ph ], [ %indvars.iv.next44, %20 ]
  %21 = getelementptr inbounds nuw float, ptr %4, i64 %indvars.iv43
  %22 = load float, ptr %21, align 4, !tbaa !64
  %23 = fdiv nsz float %22, %19
  store float %23, ptr %21, align 4, !tbaa !64
  %indvars.iv.next44 = add nuw nsw i64 %indvars.iv43, 1
  %exitcond46.not = icmp eq i64 %indvars.iv.next44, %5
  br i1 %exitcond46.not, label %.preheader, label %20, !llvm.loop !86

._crit_edge:                                      ; preds = %.lr.ph39, %.preheader32, %.preheader
  ret void

.lr.ph39:                                         ; preds = %.lr.ph39.preheader, %.lr.ph39
  %store_forwarded = phi float [ %load_initial, %.lr.ph39.preheader ], [ %26, %.lr.ph39 ]
  %indvars.iv47 = phi i64 [ 1, %.lr.ph39.preheader ], [ %indvars.iv.next48, %.lr.ph39 ]
  %24 = getelementptr float, ptr %4, i64 %indvars.iv47
  %25 = load float, ptr %24, align 4, !tbaa !64
  %26 = fadd nsz float %store_forwarded, %25
  store float %26, ptr %24, align 4, !tbaa !64
  %indvars.iv.next48 = add nuw nsw i64 %indvars.iv47, 1
  %exitcond50.not = icmp eq i64 %indvars.iv.next48, %5
  br i1 %exitcond50.not, label %._crit_edge, label %.lr.ph39, !llvm.loop !87
}